; Function Attrs: mustprogress uwtable
define noundef i32 @_ZN11floatbuffer7destroyEv(ptr nocapture noundef nonnull align 8 dereferenceable(32) %0) local_unnamed_addr #9 align 2 personality ptr @__gxx_personality_v0 {
  %2 = alloca %class.QString, align 8
  %3 = load ptr, ptr %0, align 8
  %4 = icmp eq ptr %3, null
  %5 = getelementptr inbounds i8, ptr %0, i64 16
  %6 = load i32, ptr %5, align 8
  %7 = icmp eq i32 %6, -1
  %or.cond = select i1 %4, i1 %7, i1 false
  br i1 %or.cond, label %19, label %8

8:                                                ; preds = %1
  %9 = getelementptr inbounds i8, ptr %0, i64 8
  store i32 0, ptr %9, align 8
  %10 = getelementptr inbounds i8, ptr %0, i64 12
  store i32 0, ptr %10, align 4
  br i1 %4, label %12, label %11

11:                                               ; preds = %8
  tail call void @_ZdaPv(ptr noundef nonnull %3) #30
  br label %12

12:                                               ; preds = %11, %8
  store ptr null, ptr %0, align 8
  store i32 -1, ptr %5, align 8
  %13 = getelementptr inbounds i8, ptr %0, i64 24
  call void @llvm.lifetime.start.p0(i64 8, ptr nonnull %2)
  call void @_ZN7QString15fromUtf8_helperEPKci(ptr dead_on_unwind nonnull writable sret(%class.QString) align 8 %2, ptr noundef nonnull @.str.6, i32 noundef 4)
  %14 = load ptr, ptr %13, align 8
  %15 = load ptr, ptr %2, align 8
  store ptr %15, ptr %13, align 8
  store ptr %14, ptr %2, align 8
  %16 = load atomic i32, ptr %14 monotonic, align 4
  switch i32 %16, label %_ZN9QtPrivate8RefCount5derefEv.exit.i.i [
    i32 0, label %_ZN9QtPrivate8RefCount5derefEv.exit.thread2.i.i
    i32 -1, label %_ZN7QStringaSEPKc.exit
  ]

_ZN9QtPrivate8RefCount5derefEv.exit.i.i:          ; preds = %12
  %17 = atomicrmw sub ptr %14, i32 1 seq_cst, align 4
  %.not.i.i = icmp eq i32 %17, 1
  br i1 %.not.i.i, label %_ZN9QtPrivate8RefCount5derefEv.exit._ZN9QtPrivate8RefCount5derefEv.exit.thread2_crit_edge.i.i, label %_ZN7QStringaSEPKc.exit

_ZN9QtPrivate8RefCount5derefEv.exit._ZN9QtPrivate8RefCount5derefEv.exit.thread2_crit_edge.i.i: ; preds = %_ZN9QtPrivate8RefCount5derefEv.exit.i.i
  %.pre.i.i = load ptr, ptr %2, align 8
  br label %_ZN9QtPrivate8RefCount5derefEv.exit.thread2.i.i

_ZN9QtPrivate8RefCount5derefEv.exit.thread2.i.i:  ; preds = %_ZN9QtPrivate8RefCount5derefEv.exit._ZN9QtPrivate8RefCount5derefEv.exit.thread2_crit_edge.i.i, %12
  %18 = phi ptr [ %.pre.i.i, %_ZN9QtPrivate8RefCount5derefEv.exit._ZN9QtPrivate8RefCount5derefEv.exit.thread2_crit_edge.i.i ], [ %14, %12 ]
  call void @_ZN10QArrayData10deallocateEPS_mm(ptr noundef %18, i64 noundef 2, i64 noundef 8) #31
  br label %_ZN7QStringaSEPKc.exit

_ZN7QStringaSEPKc.exit:                           ; preds = %12, %_ZN9QtPrivate8RefCount5derefEv.exit.i.i, %_ZN9QtPrivate8RefCount5derefEv.exit.thread2.i.i
  call void @llvm.lifetime.end.p0(i64 8, ptr nonnull %2)
  br label %19

19:                                               ; preds = %1, %_ZN7QStringaSEPKc.exit
  %.0 = phi i32 [ 1, %_ZN7QStringaSEPKc.exit ], [ -1, %1 ]
  ret i32 %.0
}